target datalayout = "e-m:e-p270:32:32-p271:32:32-p272:64:64-i64:64-i128:128-f80:128-n8:16:32:64-S128"
target triple = "x86_64-pc-linux-gnu"

%"class.std::vector" = type { %"struct.std::_Vector_base" }
%"struct.std::_Vector_base" = type { %"struct.std::_Vector_base<cv::Ptr<cv::obsensor::IStreamChannel>, std::allocator<cv::Ptr<cv::obsensor::IStreamChannel>>>::_Vector_impl" }
%"struct.std::_Vector_base<cv::Ptr<cv::obsensor::IStreamChannel>, std::allocator<cv::Ptr<cv::obsensor::IStreamChannel>>>::_Vector_impl" = type { %"struct.std::_Vector_base<cv::Ptr<cv::obsensor::IStreamChannel>, std::allocator<cv::Ptr<cv::obsensor::IStreamChannel>>>::_Vector_impl_data" }
%"struct.std::_Vector_base<cv::Ptr<cv::obsensor::IStreamChannel>, std::allocator<cv::Ptr<cv::obsensor::IStreamChannel>>>::_Vector_impl_data" = type { ptr, ptr, ptr }
%"class.cv::VideoCapture_obsensor" = type <{ %"class.cv::IVideoCapture", i8, [7 x i8], %"class.std::vector", %"class.std::mutex", %"class.std::condition_variable", %"class.cv::Mat", %"class.cv::Mat", %"class.cv::Mat", %"class.cv::Mat", %"struct.cv::obsensor::CameraParam", i32, [4 x i8] }>
%"class.cv::IVideoCapture" = type { ptr }
%"class.std::mutex" = type { %"class.std::__mutex_base" }
%"class.std::__mutex_base" = type { %union.pthread_mutex_t }
%union.pthread_mutex_t = type { %struct.__pthread_mutex_s }
%struct.__pthread_mutex_s = type { i32, i32, i32, i32, i32, i16, i16, %struct.__pthread_internal_list }
%struct.__pthread_internal_list = type { ptr, ptr }
%"class.std::condition_variable" = type { %"class.std::__condvar" }
%"class.std::__condvar" = type { %union.pthread_cond_t }
%union.pthread_cond_t = type { %struct.__pthread_cond_s }
%struct.__pthread_cond_s = type { %union.__atomic_wide_counter, %union.__atomic_wide_counter, [2 x i32], [2 x i32], i32, i32, [2 x i32] }
%union.__atomic_wide_counter = type { i64 }
%"class.cv::Mat" = type { i32, i32, i32, i32, ptr, ptr, ptr, ptr, ptr, ptr, %"struct.cv::MatSize", %"struct.cv::MatStep" }
%"struct.cv::MatSize" = type { ptr }
%"struct.cv::MatStep" = type { ptr, [2 x i64] }
%"struct.cv::obsensor::CameraParam" = type { [4 x float], [4 x float], [9 x float], [3 x float], [5 x float], [5 x float], [2 x i32], [2 x i32] }

; Function Attrs: mustprogress nounwind uwtable
define hidden noundef double @_ZNK2cv21VideoCapture_obsensor11getPropertyEi(ptr noundef nonnull align 8 dereferenceable(652) %0, i32 noundef %1) unnamed_addr #5 align 2 {
  %3 = alloca ptr, align 8
  %4 = alloca i32, align 4
  %5 = alloca double, align 8
  store ptr %0, ptr %3, align 8
  store i32 %1, ptr %4, align 4
  %6 = load ptr, ptr %3, align 8
  store double 0.000000e+00, ptr %5, align 8
  %7 = load i32, ptr %4, align 4
  %8 = and i32 %7, -939524097
  store i32 %8, ptr %4, align 4
  %9 = load i32, ptr %4, align 4
  switch i32 %9, label %50 [
    i32 26001, label %10
    i32 26002, label %20
    i32 26003, label %30
    i32 26004, label %40
  ]

10:                                               ; preds = %2
  %11 = getelementptr inbounds %"class.cv::VideoCapture_obsensor", ptr %6, i32 0, i32 10
  %12 = getelementptr inbounds %"struct.cv::obsensor::CameraParam", ptr %11, i32 0, i32 1
  %13 = getelementptr inbounds [4 x float], ptr %12, i64 0, i64 0
  %14 = load float, ptr %13, align 8
  %15 = getelementptr inbounds %"class.cv::VideoCapture_obsensor", ptr %6, i32 0, i32 11
  %16 = load i32, ptr %15, align 8
  %17 = sitofp i32 %16 to float
  %18 = fdiv float %14, %17
  %19 = fpext float %18 to double
  store double %19, ptr %5, align 8
  br label %50

20:                                               ; preds = %2
  %21 = getelementptr inbounds %"class.cv::VideoCapture_obsensor", ptr %6, i32 0, i32 10
  %22 = getelementptr inbounds %"struct.cv::obsensor::CameraParam", ptr %21, i32 0, i32 1
  %23 = getelementptr inbounds [4 x float], ptr %22, i64 0, i64 1
  %24 = load float, ptr %23, align 4
  %25 = getelementptr inbounds %"class.cv::VideoCapture_obsensor", ptr %6, i32 0, i32 11
  %26 = load i32, ptr %25, align 8
  %27 = sitofp i32 %26 to float
  %28 = fdiv float %24, %27
  %29 = fpext float %28 to double
  store double %29, ptr %5, align 8
  br label %50

30:                                               ; preds = %2
  %31 = getelementptr inbounds %"class.cv::VideoCapture_obsensor", ptr %6, i32 0, i32 10
  %32 = getelementptr inbounds %"struct.cv::obsensor::CameraParam", ptr %31, i32 0, i32 1
  %33 = getelementptr inbounds [4 x float], ptr %32, i64 0, i64 2
  %34 = load float, ptr %33, align 8
  %35 = getelementptr inbounds %"class.cv::VideoCapture_obsensor", ptr %6, i32 0, i32 11
  %36 = load i32, ptr %35, align 8
  %37 = sitofp i32 %36 to float
  %38 = fdiv float %34, %37
  %39 = fpext float %38 to double
  store double %39, ptr %5, align 8
  br label %50

40:                                               ; preds = %2
  %41 = getelementptr inbounds %"class.cv::VideoCapture_obsensor", ptr %6, i32 0, i32 10
  %42 = getelementptr inbounds %"struct.cv::obsensor::CameraParam", ptr %41, i32 0, i32 1
  %43 = getelementptr inbounds [4 x float], ptr %42, i64 0, i64 3
  %44 = load float, ptr %43, align 4
  %45 = getelementptr inbounds %"class.cv::VideoCapture_obsensor", ptr %6, i32 0, i32 11
  %46 = load i32, ptr %45, align 8
  %47 = sitofp i32 %46 to float
  %48 = fdiv float %44, %47
  %49 = fpext float %48 to double
  store double %49, ptr %5, align 8
  br label %50

50:                                               ; preds = %40, %30, %20, %10, %2
  %51 = load double, ptr %5, align 8
  ret double %51
}