; Function Attrs: mustprogress nofree norecurse nosync nounwind willreturn memory(argmem: read) uwtable
define hidden noundef double @_ZNK2cv21VideoCapture_obsensor11getPropertyEi(ptr nocapture noundef nonnull readonly align 8 dereferenceable(652) %0, i32 noundef %1) unnamed_addr #9 align 2 {
  %3 = and i32 %1, -939524097
  switch i32 %3, label %36 [
    i32 26001, label %4
    i32 26002, label %12
    i32 26003, label %20
    i32 26004, label %28
  ]

4:                                                ; preds = %2
  %5 = getelementptr inbounds i8, ptr %0, i64 528
  %6 = load float, ptr %5, align 8
  %7 = getelementptr inbounds i8, ptr %0, i64 648
  %8 = load i32, ptr %7, align 8
  %9 = sitofp i32 %8 to float
  %10 = fdiv float %6, %9
  %11 = fpext float %10 to double
  br label %36

12:                                               ; preds = %2
  %13 = getelementptr inbounds i8, ptr %0, i64 532
  %14 = load float, ptr %13, align 4
  %15 = getelementptr inbounds i8, ptr %0, i64 648
  %16 = load i32, ptr %15, align 8
  %17 = sitofp i32 %16 to float
  %18 = fdiv float %14, %17
  %19 = fpext float %18 to double
  br label %36

20:                                               ; preds = %2
  %21 = getelementptr inbounds i8, ptr %0, i64 536
  %22 = load float, ptr %21, align 8
  %23 = getelementptr inbounds i8, ptr %0, i64 648
  %24 = load i32, ptr %23, align 8
  %25 = sitofp i32 %24 to float
  %26 = fdiv float %22, %25
  %27 = fpext float %26 to double
  br label %36

28:                                               ; preds = %2
  %29 = getelementptr inbounds i8, ptr %0, i64 540
  %30 = load float, ptr %29, align 4
  %31 = getelementptr inbounds i8, ptr %0, i64 648
  %32 = load i32, ptr %31, align 8
  %33 = sitofp i32 %32 to float
  %34 = fdiv float %30, %33
  %35 = fpext float %34 to double
  br label %36

36:                                               ; preds = %28, %20, %12, %4, %2
  %.0 = phi double [ 0.000000e+00, %2 ], [ %35, %28 ], [ %27, %20 ], [ %19, %12 ], [ %11, %4 ]
  ret double %.0
}